target datalayout = "e-m:e-p270:32:32-p271:32:32-p272:64:64-i64:64-f80:128-n8:16:32:64-S128"
target triple = "x86_64-pc-linux-gnu"

@.str = private unnamed_addr constant [3 x i8] c"%s\00", align 1
@.str.1 = private unnamed_addr constant [4 x i8] c" %s\00", align 1
@.str.2 = private unnamed_addr constant [3 x i8] c"%c\00", align 1
@.str.3 = private unnamed_addr constant [2 x i8] c" \00", align 1

; Function Attrs: noinline nounwind uwtable
define dso_local i32 @main() #0 {
  %1 = alloca i32, align 4
  %2 = alloca [1000 x i8], align 16
  %3 = alloca [50 x i8], align 16
  %4 = alloca [50 x i8], align 16
  %5 = alloca [1000 x i32], align 16
  %6 = alloca [1000 x i32], align 16
  %7 = alloca i32, align 4
  %8 = alloca i32, align 4
  %9 = alloca i32, align 4
  %10 = alloca i32, align 4
  %11 = alloca i32, align 4
  %12 = alloca i32, align 4
  %13 = alloca i32, align 4
  %14 = alloca i32, align 4
  %15 = alloca i32, align 4
  %16 = alloca i32, align 4
  store i32 0, i32* %1, align 4
  store i32 0, i32* %9, align 4
  store i32 0, i32* %10, align 4
  store i32 0, i32* %15, align 4
  %17 = getelementptr inbounds [1000 x i8], [1000 x i8]* %2, i64 0, i64 0
  %18 = call i32 (i8*, ...) bitcast (i32 (...)* @gets to i32 (i8*, ...)*)(i8* %17)
  %19 = getelementptr inbounds [50 x i8], [50 x i8]* %3, i64 0, i64 0
  %20 = call i32 (i8*, ...) bitcast (i32 (...)* @gets to i32 (i8*, ...)*)(i8* %19)
  %21 = getelementptr inbounds [50 x i8], [50 x i8]* %4, i64 0, i64 0
  %22 = call i32 (i8*, ...) bitcast (i32 (...)* @gets to i32 (i8*, ...)*)(i8* %21)
  %23 = getelementptr inbounds [1000 x i8], [1000 x i8]* %2, i64 0, i64 0
  %24 = call i64 @strlen(i8* %23) #3
  %25 = trunc i64 %24 to i32
  store i32 %25, i32* %8, align 4
  %26 = getelementptr inbounds [50 x i8], [50 x i8]* %3, i64 0, i64 0
  %27 = call i64 @strlen(i8* %26) #3
  %28 = trunc i64 %27 to i32
  store i32 %28, i32* %13, align 4
  %29 = getelementptr inbounds [1000 x i32], [1000 x i32]* %6, i64 0, i64 0
  store i32 0, i32* %29, align 16
  store i32 0, i32* %7, align 4
  br label %30

30:                                               ; preds = %84, %0
  %31 = load i32, i32* %7, align 4
  %32 = load i32, i32* %8, align 4
  %33 = icmp slt i32 %31, %32
  br i1 %33, label %34, label %87

34:                                               ; preds = %30
  %35 = load i32, i32* %7, align 4
  %36 = sext i32 %35 to i64
  %37 = getelementptr inbounds [1000 x i8], [1000 x i8]* %2, i64 0, i64 %36
  %38 = load i8, i8* %37, align 1
  %39 = sext i8 %38 to i32
  %40 = icmp eq i32 %39, 32
  br i1 %40, label %41, label %58

41:                                               ; preds = %34
  %42 = load i32, i32* %9, align 4
  %43 = icmp eq i32 %42, 0
  br i1 %43, label %44, label %58

44:                                               ; preds = %41
  %45 = load i32, i32* %7, align 4
  %46 = load i32, i32* %10, align 4
  %47 = sext i32 %46 to i64
  %48 = getelementptr inbounds [1000 x i32], [1000 x i32]* %5, i64 0, i64 %47
  store i32 %45, i32* %48, align 4
  %49 = load i32, i32* %7, align 4
  %50 = add nsw i32 %49, 1
  %51 = load i32, i32* %10, align 4
  %52 = add nsw i32 %51, 1
  %53 = sext i32 %52 to i64
  %54 = getelementptr inbounds [1000 x i32], [1000 x i32]* %6, i64 0, i64 %53
  store i32 %50, i32* %54, align 4
  %55 = load i32, i32* %10, align 4
  %56 = add nsw i32 %55, 1
  store i32 %56, i32* %10, align 4
  store i32 1, i32* %9, align 4
  %57 = load i32, i32* %7, align 4
  store i32 %57, i32* %11, align 4
  br label %83

58:                                               ; preds = %41, %34
  %59 = load i32, i32* %7, align 4
  %60 = sext i32 %59 to i64
  %61 = getelementptr inbounds [1000 x i8], [1000 x i8]* %2, i64 0, i64 %60
  %62 = load i8, i8* %61, align 1
  %63 = sext i8 %62 to i32
  %64 = icmp eq i32 %63, 32
  br i1 %64, label %65, label %82

65:                                               ; preds = %58
  %66 = load i32, i32* %7, align 4
  %67 = load i32, i32* %11, align 4
  %68 = sub nsw i32 %66, %67
  %69 = sub nsw i32 %68, 1
  %70 = load i32, i32* %10, align 4
  %71 = sext i32 %70 to i64
  %72 = getelementptr inbounds [1000 x i32], [1000 x i32]* %5, i64 0, i64 %71
  store i32 %69, i32* %72, align 4
  %73 = load i32, i32* %7, align 4
  %74 = add nsw i32 %73, 1
  %75 = load i32, i32* %10, align 4
  %76 = add nsw i32 %75, 1
  %77 = sext i32 %76 to i64
  %78 = getelementptr inbounds [1000 x i32], [1000 x i32]* %6, i64 0, i64 %77
  store i32 %74, i32* %78, align 4
  %79 = load i32, i32* %10, align 4
  %80 = add nsw i32 %79, 1
  store i32 %80, i32* %10, align 4
  %81 = load i32, i32* %7, align 4
  store i32 %81, i32* %11, align 4
  br label %82

82:                                               ; preds = %65, %58
  br label %83

83:                                               ; preds = %82, %44
  br label %84

84:                                               ; preds = %83
  %85 = load i32, i32* %7, align 4
  %86 = add nsw i32 %85, 1
  store i32 %86, i32* %7, align 4
  br label %30

87:                                               ; preds = %30
  %88 = load i32, i32* %8, align 4
  %89 = sub nsw i32 %88, 1
  %90 = load i32, i32* %11, align 4
  %91 = sub nsw i32 %89, %90
  %92 = load i32, i32* %10, align 4
  %93 = sext i32 %92 to i64
  %94 = getelementptr inbounds [1000 x i32], [1000 x i32]* %5, i64 0, i64 %93
  store i32 %91, i32* %94, align 4
  %95 = load i32, i32* %10, align 4
  %96 = add nsw i32 %95, 1
  store i32 %96, i32* %12, align 4
  store i32 0, i32* %10, align 4
  br label %97

97:                                               ; preds = %281, %87
  %98 = load i32, i32* %10, align 4
  %99 = load i32, i32* %12, align 4
  %100 = icmp slt i32 %98, %99
  br i1 %100, label %101, label %284

101:                                              ; preds = %97
  %102 = load i32, i32* %10, align 4
  %103 = sext i32 %102 to i64
  %104 = getelementptr inbounds [1000 x i32], [1000 x i32]* %5, i64 0, i64 %103
  %105 = load i32, i32* %104, align 4
  %106 = load i32, i32* %13, align 4
  %107 = icmp eq i32 %105, %106
  br i1 %107, label %108, label %219

108:                                              ; preds = %101
  store i32 0, i32* %16, align 4
  %109 = load i32, i32* %10, align 4
  %110 = sext i32 %109 to i64
  %111 = getelementptr inbounds [1000 x i32], [1000 x i32]* %6, i64 0, i64 %110
  %112 = load i32, i32* %111, align 4
  store i32 %112, i32* %14, align 4
  br label %113

113:                                              ; preds = %139, %108
  %114 = load i32, i32* %14, align 4
  %115 = load i32, i32* %10, align 4
  %116 = sext i32 %115 to i64
  %117 = getelementptr inbounds [1000 x i32], [1000 x i32]* %6, i64 0, i64 %116
  %118 = load i32, i32* %117, align 4
  %119 = load i32, i32* %10, align 4
  %120 = sext i32 %119 to i64
  %121 = getelementptr inbounds [1000 x i32], [1000 x i32]* %5, i64 0, i64 %120
  %122 = load i32, i32* %121, align 4
  %123 = add nsw i32 %118, %122
  %124 = icmp slt i32 %114, %123
  br i1 %124, label %125, label %144

125:                                              ; preds = %113
  %126 = load i32, i32* %16, align 4
  %127 = sext i32 %126 to i64
  %128 = getelementptr inbounds [50 x i8], [50 x i8]* %3, i64 0, i64 %127
  %129 = load i8, i8* %128, align 1
  %130 = sext i8 %129 to i32
  %131 = load i32, i32* %14, align 4
  %132 = sext i32 %131 to i64
  %133 = getelementptr inbounds [1000 x i8], [1000 x i8]* %2, i64 0, i64 %132
  %134 = load i8, i8* %133, align 1
  %135 = sext i8 %134 to i32
  %136 = icmp ne i32 %130, %135
  br i1 %136, label %137, label %138

137:                                              ; preds = %125
  store i32 1, i32* %15, align 4
  br label %138

138:                                              ; preds = %137, %125
  br label %139

139:                                              ; preds = %138
  %140 = load i32, i32* %14, align 4
  %141 = add nsw i32 %140, 1
  store i32 %141, i32* %14, align 4
  %142 = load i32, i32* %16, align 4
  %143 = add nsw i32 %142, 1
  store i32 %143, i32* %16, align 4
  br label %113

144:                                              ; preds = %113
  store i32 0, i32* %16, align 4
  %145 = load i32, i32* %15, align 4
  %146 = icmp eq i32 %145, 0
  br i1 %146, label %147, label %157

147:                                              ; preds = %144
  %148 = load i32, i32* %10, align 4
  %149 = icmp eq i32 %148, 0
  br i1 %149, label %150, label %153

150:                                              ; preds = %147
  %151 = getelementptr inbounds [50 x i8], [50 x i8]* %4, i64 0, i64 0
  %152 = call i32 (i8*, ...) @printf(i8* getelementptr inbounds ([3 x i8], [3 x i8]* @.str, i64 0, i64 0), i8* %151)
  br label %156

153:                                              ; preds = %147
  %154 = getelementptr inbounds [50 x i8], [50 x i8]* %4, i64 0, i64 0
  %155 = call i32 (i8*, ...) @printf(i8* getelementptr inbounds ([4 x i8], [4 x i8]* @.str.1, i64 0, i64 0), i8* %154)
  br label %156

156:                                              ; preds = %153, %150
  br label %218

157:                                              ; preds = %144
  %158 = load i32, i32* %10, align 4
  %159 = icmp eq i32 %158, 0
  br i1 %159, label %160, label %188

160:                                              ; preds = %157
  %161 = load i32, i32* %10, align 4
  %162 = sext i32 %161 to i64
  %163 = getelementptr inbounds [1000 x i32], [1000 x i32]* %6, i64 0, i64 %162
  %164 = load i32, i32* %163, align 4
  store i32 %164, i32* %14, align 4
  br label %165

165:                                              ; preds = %184, %160
  %166 = load i32, i32* %14, align 4
  %167 = load i32, i32* %10, align 4
  %168 = sext i32 %167 to i64
  %169 = getelementptr inbounds [1000 x i32], [1000 x i32]* %6, i64 0, i64 %168
  %170 = load i32, i32* %169, align 4
  %171 = load i32, i32* %10, align 4
  %172 = sext i32 %171 to i64
  %173 = getelementptr inbounds [1000 x i32], [1000 x i32]* %5, i64 0, i64 %172
  %174 = load i32, i32* %173, align 4
  %175 = add nsw i32 %170, %174
  %176 = icmp slt i32 %166, %175
  br i1 %176, label %177, label %187

177:                                              ; preds = %165
  %178 = load i32, i32* %14, align 4
  %179 = sext i32 %178 to i64
  %180 = getelementptr inbounds [1000 x i8], [1000 x i8]* %2, i64 0, i64 %179
  %181 = load i8, i8* %180, align 1
  %182 = sext i8 %181 to i32
  %183 = call i32 (i8*, ...) @printf(i8* getelementptr inbounds ([3 x i8], [3 x i8]* @.str.2, i64 0, i64 0), i32 %182)
  br label %184

184:                                              ; preds = %177
  %185 = load i32, i32* %14, align 4
  %186 = add nsw i32 %185, 1
  store i32 %186, i32* %14, align 4
  br label %165

187:                                              ; preds = %165
  br label %217

188:                                              ; preds = %157
  %189 = call i32 (i8*, ...) @printf(i8* getelementptr inbounds ([2 x i8], [2 x i8]* @.str.3, i64 0, i64 0))
  %190 = load i32, i32* %10, align 4
  %191 = sext i32 %190 to i64
  %192 = getelementptr inbounds [1000 x i32], [1000 x i32]* %6, i64 0, i64 %191
  %193 = load i32, i32* %192, align 4
  store i32 %193, i32* %14, align 4
  br label %194

194:                                              ; preds = %213, %188
  %195 = load i32, i32* %14, align 4
  %196 = load i32, i32* %10, align 4
  %197 = sext i32 %196 to i64
  %198 = getelementptr inbounds [1000 x i32], [1000 x i32]* %6, i64 0, i64 %197
  %199 = load i32, i32* %198, align 4
  %200 = load i32, i32* %10, align 4
  %201 = sext i32 %200 to i64
  %202 = getelementptr inbounds [1000 x i32], [1000 x i32]* %5, i64 0, i64 %201
  %203 = load i32, i32* %202, align 4
  %204 = add nsw i32 %199, %203
  %205 = icmp slt i32 %195, %204
  br i1 %205, label %206, label %216

206:                                              ; preds = %194
  %207 = load i32, i32* %14, align 4
  %208 = sext i32 %207 to i64
  %209 = getelementptr inbounds [1000 x i8], [1000 x i8]* %2, i64 0, i64 %208
  %210 = load i8, i8* %209, align 1
  %211 = sext i8 %210 to i32
  %212 = call i32 (i8*, ...) @printf(i8* getelementptr inbounds ([3 x i8], [3 x i8]* @.str.2, i64 0, i64 0), i32 %211)
  br label %213

213:                                              ; preds = %206
  %214 = load i32, i32* %14, align 4
  %215 = add nsw i32 %214, 1
  store i32 %215, i32* %14, align 4
  br label %194

216:                                              ; preds = %194
  br label %217

217:                                              ; preds = %216, %187
  br label %218

218:                                              ; preds = %217, %156
  store i32 0, i32* %15, align 4
  br label %280

219:                                              ; preds = %101
  %220 = load i32, i32* %10, align 4
  %221 = icmp eq i32 %220, 0
  br i1 %221, label %222, label %250

222:                                              ; preds = %219
  %223 = load i32, i32* %10, align 4
  %224 = sext i32 %223 to i64
  %225 = getelementptr inbounds [1000 x i32], [1000 x i32]* %6, i64 0, i64 %224
  %226 = load i32, i32* %225, align 4
  store i32 %226, i32* %14, align 4
  br label %227

227:                                              ; preds = %246, %222
  %228 = load i32, i32* %14, align 4
  %229 = load i32, i32* %10, align 4
  %230 = sext i32 %229 to i64
  %231 = getelementptr inbounds [1000 x i32], [1000 x i32]* %6, i64 0, i64 %230
  %232 = load i32, i32* %231, align 4
  %233 = load i32, i32* %10, align 4
  %234 = sext i32 %233 to i64
  %235 = getelementptr inbounds [1000 x i32], [1000 x i32]* %5, i64 0, i64 %234
  %236 = load i32, i32* %235, align 4
  %237 = add nsw i32 %232, %236
  %238 = icmp slt i32 %228, %237
  br i1 %238, label %239, label %249

239:                                              ; preds = %227
  %240 = load i32, i32* %14, align 4
  %241 = sext i32 %240 to i64
  %242 = getelementptr inbounds [1000 x i8], [1000 x i8]* %2, i64 0, i64 %241
  %243 = load i8, i8* %242, align 1
  %244 = sext i8 %243 to i32
  %245 = call i32 (i8*, ...) @printf(i8* getelementptr inbounds ([3 x i8], [3 x i8]* @.str.2, i64 0, i64 0), i32 %244)
  br label %246

246:                                              ; preds = %239
  %247 = load i32, i32* %14, align 4
  %248 = add nsw i32 %247, 1
  store i32 %248, i32* %14, align 4
  br label %227

249:                                              ; preds = %227
  br label %279

250:                                              ; preds = %219
  %251 = call i32 (i8*, ...) @printf(i8* getelementptr inbounds ([2 x i8], [2 x i8]* @.str.3, i64 0, i64 0))
  %252 = load i32, i32* %10, align 4
  %253 = sext i32 %252 to i64
  %254 = getelementptr inbounds [1000 x i32], [1000 x i32]* %6, i64 0, i64 %253
  %255 = load i32, i32* %254, align 4
  store i32 %255, i32* %14, align 4
  br label %256

256:                                              ; preds = %275, %250
  %257 = load i32, i32* %14, align 4
  %258 = load i32, i32* %10, align 4
  %259 = sext i32 %258 to i64
  %260 = getelementptr inbounds [1000 x i32], [1000 x i32]* %6, i64 0, i64 %259
  %261 = load i32, i32* %260, align 4
  %262 = load i32, i32* %10, align 4
  %263 = sext i32 %262 to i64
  %264 = getelementptr inbounds [1000 x i32], [1000 x i32]* %5, i64 0, i64 %263
  %265 = load i32, i32* %264, align 4
  %266 = add nsw i32 %261, %265
  %267 = icmp slt i32 %257, %266
  br i1 %267, label %268, label %278

268:                                              ; preds = %256
  %269 = load i32, i32* %14, align 4
  %270 = sext i32 %269 to i64
  %271 = getelementptr inbounds [1000 x i8], [1000 x i8]* %2, i64 0, i64 %270
  %272 = load i8, i8* %271, align 1
  %273 = sext i8 %272 to i32
  %274 = call i32 (i8*, ...) @printf(i8* getelementptr inbounds ([3 x i8], [3 x i8]* @.str.2, i64 0, i64 0), i32 %273)
  br label %275

275:                                              ; preds = %268
  %276 = load i32, i32* %14, align 4
  %277 = add nsw i32 %276, 1
  store i32 %277, i32* %14, align 4
  br label %256

278:                                              ; preds = %256
  br label %279

279:                                              ; preds = %278, %249
  br label %280

280:                                              ; preds = %279, %218
  br label %281

281:                                              ; preds = %280
  %282 = load i32, i32* %10, align 4
  %283 = add nsw i32 %282, 1
  store i32 %283, i32* %10, align 4
  br label %97

284:                                              ; preds = %97
  ret i32 0
}